; Function Attrs: mustprogress noreturn uwtable
define internal fastcc void @_ZN19OpenColorIO_v2_4dev12_GLOBAL__N_112ThrowWriteOpERKNSt7__cxx1112basic_stringIcSt11char_traitsIcESaIcEEE(ptr noundef nonnull align 8 dereferenceable(32) %type) unnamed_addr #10 personality ptr @__gxx_personality_v0 {
entry:
  %oss = alloca %"class.std::__cxx11::basic_ostringstream", align 8
  %ref.tmp = alloca %"class.std::__cxx11::basic_string", align 8
  call void @_ZNSt7__cxx1119basic_ostringstreamIcSt11char_traitsIcESaIcEEC1Ev(ptr noundef nonnull align 8 dereferenceable(112) %oss)
  %call = invoke noundef nonnull align 8 dereferenceable(8) ptr @_ZStlsISt11char_traitsIcEERSt13basic_ostreamIcT_ES5_PKc(ptr noundef nonnull align 8 dereferenceable(8) %oss, ptr noundef nonnull @.str.39)
          to label %invoke.cont unwind label %lpad

invoke.cont:                                      ; preds = %entry
  %call2 = invoke noundef nonnull align 8 dereferenceable(8) ptr @_ZStlsIcSt11char_traitsIcESaIcEERSt13basic_ostreamIT_T0_ES7_RKNSt7__cxx1112basic_stringIS4_S5_T1_EE(ptr noundef nonnull align 8 dereferenceable(8) %call, ptr noundef nonnull align 8 dereferenceable(32) %type)
          to label %invoke.cont1 unwind label %lpad

invoke.cont1:                                     ; preds = %invoke.cont
  %call4 = invoke noundef nonnull align 8 dereferenceable(8) ptr @_ZStlsISt11char_traitsIcEERSt13basic_ostreamIcT_ES5_PKc(ptr noundef nonnull align 8 dereferenceable(8) %call2, ptr noundef nonnull @.str.40)
          to label %invoke.cont3 unwind label %lpad

invoke.cont3:                                     ; preds = %invoke.cont1
  %exception = call ptr @__cxa_allocate_exception(i64 16) #25
  invoke void @_ZNKSt7__cxx1119basic_ostringstreamIcSt11char_traitsIcESaIcEE3strEv(ptr nonnull sret(%"class.std::__cxx11::basic_string") align 8 %ref.tmp, ptr noundef nonnull align 8 dereferenceable(112) %oss)
          to label %invoke.cont6 unwind label %ehcleanup.thread

invoke.cont6:                                     ; preds = %invoke.cont3
  %call7 = call noundef ptr @_ZNKSt7__cxx1112basic_stringIcSt11char_traitsIcESaIcEE5c_strEv(ptr noundef nonnull align 8 dereferenceable(32) %ref.tmp) #25
  invoke void @_ZN19OpenColorIO_v2_4dev9ExceptionC1EPKc(ptr noundef nonnull align 8 dereferenceable(16) %exception, ptr noundef %call7)
          to label %invoke.cont9 unwind label %ehcleanup.thread6

ehcleanup.thread6:                                ; preds = %invoke.cont6
  %0 = landingpad { ptr, i32 }
          cleanup
  call void @_ZNSt7__cxx1112basic_stringIcSt11char_traitsIcESaIcEED1Ev(ptr noundef nonnull align 8 dereferenceable(32) %ref.tmp) #25
  br label %cleanup.action

invoke.cont9:                                     ; preds = %invoke.cont6
  invoke void @__cxa_throw(ptr nonnull %exception, ptr nonnull @_ZTIN19OpenColorIO_v2_4dev9ExceptionE, ptr nonnull @_ZN19OpenColorIO_v2_4dev9ExceptionD1Ev) #26
          to label %unreachable unwind label %ehcleanup

lpad:                                             ; preds = %invoke.cont1, %invoke.cont, %entry
  %1 = landingpad { ptr, i32 }
          cleanup
  br label %ehcleanup10

ehcleanup.thread:                                 ; preds = %invoke.cont3
  %2 = landingpad { ptr, i32 }
          cleanup
  br label %cleanup.action

ehcleanup:                                        ; preds = %invoke.cont9
  %3 = landingpad { ptr, i32 }
          cleanup
  call void @_ZNSt7__cxx1112basic_stringIcSt11char_traitsIcESaIcEED1Ev(ptr noundef nonnull align 8 dereferenceable(32) %ref.tmp) #25
  br label %ehcleanup10

cleanup.action:                                   ; preds = %ehcleanup.thread6, %ehcleanup.thread
  %.pn5 = phi { ptr, i32 } [ %2, %ehcleanup.thread ], [ %0, %ehcleanup.thread6 ]
  call void @__cxa_free_exception(ptr %exception) #25
  br label %ehcleanup10

ehcleanup10:                                      ; preds = %ehcleanup, %cleanup.action, %lpad
  %.pn.pn = phi { ptr, i32 } [ %.pn5, %cleanup.action ], [ %3, %ehcleanup ], [ %1, %lpad ]
  call void @_ZNSt7__cxx1119basic_ostringstreamIcSt11char_traitsIcESaIcEED1Ev(ptr noundef nonnull align 8 dereferenceable(112) %oss) #25
  resume { ptr, i32 } %.pn.pn

unreachable:                                      ; preds = %invoke.cont9
  unreachable
}